Certificate:
    Data:
        Version: 3 (0x2)
        Serial Number: 150 (0x96)
        Signature Algorithm: sha512WithRSAEncryption
        Issuer: C=SG, ST=Singapore, L=Singapore, O=PS, OU=PS, CN=ANSIBLE
        Validity
            Not Before: Feb 17 10:22:10 2025 GMT
            Not After : Feb 12 10:22:10 2045 GMT
        Subject: C=SG, ST=Singapore, L=Singapore, O=Confluent, OU=PS, CN=AWS
        Subject Public Key Info:
            Public Key Algorithm: rsaEncryption
                Public-Key: (4096 bit)
                Modulus:
                    00:d4:1d:de:5f:63:80:29:71:9f:45:3c:a6:ed:dc:
                    dc:bf:5a:70:73:6b:86:68:35:c7:98:4d:2d:39:91:
                    48:2b:b6:b3:ff:7f:1c:0f:0d:c9:1d:3c:45:be:26:
                    64:b9:0e:fe:ba:f7:50:13:5f:80:a2:ed:d5:15:19:
                    2d:c1:00:bd:cf:47:93:c4:be:3c:1c:c2:66:7b:67:
                    db:35:1f:b1:75:0d:3d:c2:cf:a1:8f:21:6c:03:0c:
                    37:3b:ae:6c:c9:47:dd:6e:0a:2c:0e:c7:0d:6a:7b:
                    1d:18:22:83:6b:f0:a4:e2:74:fe:a8:c2:af:81:7c:
                    79:b8:f7:1f:0d:23:49:f8:ca:a4:99:61:69:6e:1b:
                    a7:e0:09:d9:ed:bf:53:2a:64:8c:98:38:fe:2a:8b:
                    d5:7a:43:9f:dd:3e:cd:a9:77:ce:0e:24:72:dc:22:
                    eb:db:14:fe:0f:f2:8d:7f:cd:48:b2:f5:a0:ef:3a:
                    0e:53:75:22:2f:bb:e7:46:a0:03:5a:50:f7:38:0e:
                    df:02:ee:4d:f9:79:32:7e:11:8c:38:2b:8e:c2:9f:
                    0d:9d:5d:db:68:76:18:02:8b:d4:9f:7c:3d:b5:ac:
                    44:c6:12:07:1f:98:9d:d9:32:f4:37:00:a3:95:16:
                    d7:51:ad:8d:47:8c:fa:1e:c8:9c:8c:48:73:fc:7c:
                    0e:64:b6:cf:6d:ae:5f:e6:ee:dd:9b:e5:f8:d4:14:
                    34:e1:ff:bb:1d:f7:2e:1f:7f:0b:6a:98:5c:fa:47:
                    17:19:6e:1a:f4:e0:10:a8:ed:58:ae:70:16:80:51:
                    4b:cd:86:27:af:70:d4:5f:d5:8c:94:20:8f:2a:ff:
                    95:32:c0:ff:1c:c5:67:e7:b2:9f:66:4e:52:5f:21:
                    b8:a1:6c:e8:34:8c:f5:b8:b9:42:71:42:1b:dc:b0:
                    71:eb:54:82:cf:38:74:28:aa:26:7a:07:c3:e7:46:
                    75:99:ee:80:d4:00:85:7e:aa:47:3e:d6:bc:c8:28:
                    f8:63:b3:4e:fe:12:7a:d2:c6:c6:2a:3f:f6:9c:bb:
                    9d:08:fc:4b:49:b4:cd:6b:e3:13:bb:76:b9:14:1e:
                    60:08:dd:fa:70:13:9e:ed:ac:47:cf:06:0a:db:9f:
                    37:27:c2:2f:90:82:9a:10:9f:bb:ae:5f:b4:15:3b:
                    51:fd:a3:44:df:32:84:03:b5:c9:6a:27:3b:41:48:
                    30:60:51:f3:89:b6:24:db:bc:0e:9d:8e:c8:0c:8f:
                    61:12:12:2e:fb:7c:6e:cc:f6:9e:81:65:7f:b5:fd:
                    a1:b6:f3:85:49:cf:ad:e7:60:0c:9c:df:ea:6a:2e:
                    06:bb:34:41:71:48:45:f3:09:27:e3:41:9d:f1:3d:
                    e6:a8:2d
                Exponent: 65537 (0x10001)
        X509v3 extensions:
            X509v3 Subject Key Identifier: 
                A5:C1:1B:BC:51:18:EA:9C:7D:9B:10:A3:C4:22:27:9A:EE:CF:DE:FA
            X509v3 Authority Key Identifier: 
                67:78:DE:A9:5E:83:02:80:63:78:58:52:AC:83:35:D3:36:E1:2A:AD
            X509v3 Basic Constraints: 
                CA:FALSE
            X509v3 Key Usage: 
                Digital Signature, Non Repudiation, Key Encipherment
            X509v3 Extended Key Usage: 
                TLS Web Client Authentication, E-mail Protection, TLS Web Server Authentication
            X509v3 Subject Alternative Name: 
                DNS:AWS, DNS:*.ap-southeast-1.compute.internal, DNS:*.ap-southeast-1.compute.amazonaws.com
            Netscape Comment: 
                OpenSSL Generated Certificate
    Signature Algorithm: sha512WithRSAEncryption
    Signature Value:
        a3:e8:10:f5:9f:84:38:e1:9b:f2:48:00:2f:5b:fc:89:b0:58:
        c3:a6:29:b3:5a:fd:f9:49:b1:dc:7d:6c:3c:e6:b8:71:94:cb:
        19:14:fe:39:5b:1a:2e:8b:4e:d0:19:cb:00:b1:d8:c6:d3:06:
        d9:c5:b0:d1:76:3e:28:97:7a:f3:11:d2:40:43:13:7b:f5:bf:
        a5:85:a5:22:fd:92:0f:ce:36:7a:21:68:f0:e3:82:01:44:f2:
        ea:f1:59:94:51:1d:14:d0:15:82:78:7c:17:53:77:dd:91:d3:
        b0:61:4e:ba:7b:cb:ec:09:02:38:a2:f4:23:f2:77:5c:1a:a5:
        0c:00:90:49:67:c2:56:19:31:4f:d4:b8:5f:71:df:15:51:fb:
        fa:09:ad:05:9c:62:ac:1c:ac:08:ff:2b:6a:ac:80:c2:c6:aa:
        a3:13:2e:c1:05:f9:ed:ff:c6:0e:33:16:9b:f8:df:27:08:9c:
        78:8c:05:78:58:b8:18:3a:2b:7a:c2:41:32:18:a2:ba:99:ca:
        9c:de:ed:cc:bc:55:6c:40:89:94:bc:f1:6d:7c:fd:c1:a0:55:
        bf:74:49:bb:41:24:90:98:bc:91:45:c3:3f:51:da:70:1f:fe:
        4f:43:76:f0:a4:3a:29:59:64:e4:18:fc:18:e6:f7:6c:d0:62:
        0b:7b:ab:ee:b5:64:b8:7b:4d:d0:1e:06:de:50:f4:cd:89:25:
        82:93:68:62:5b:06:38:12:28:c2:0e:36:b0:47:6e:a5:83:28:
        24:21:cb:ad:f6:d6:4e:08:31:e5:d0:f9:c9:4a:f6:85:be:5e:
        4e:0f:6b:73:30:50:85:7c:43:8e:0f:9c:7e:63:2b:b8:f8:70:
        30:67:60:78:4e:b4:99:a9:46:6e:47:3d:49:04:53:8b:9c:b8:
        3f:ca:65:b1:2c:f8:24:42:fa:2f:1b:50:01:12:a2:69:4d:10:
        0c:c9:5e:88:29:4e:85:23:23:87:d8:00:6e:62:eb:5b:71:ec:
        22:fd:6c:8e:be:4d:79:22:76:7b:a5:4f:89:2c:60:0b:79:10:
        2f:dd:24:17:a7:14:b6:10:78:22:0a:8c:4b:d6:8b:4e:96:07:
        7d:91:09:d1:a6:dd:ec:9e:2c:2d:54:0e:ce:8b:a9:2d:f4:0f:
        9b:40:b5:5c:7c:31:86:88:79:29:32:ee:30:f3:cb:01:13:b5:
        f2:ea:57:2a:f5:8e:70:23:d2:69:37:6a:fb:7f:9b:5f:d8:ba:
        18:b9:ea:82:95:3e:22:f2:58:ca:0c:7f:b8:9b:40:19:e7:24:
        3d:e7:a2:cf:06:6b:4f:c3:13:44:73:a3:df:3d:f3:b1:e3:66:
        74:b3:46:d7:45:73:29:34
-----BEGIN CERTIFICATE-----
MIIGUTCCBDmgAwIBAgICAJYwDQYJKoZIhvcNAQENBQAwYTELMAkGA1UEBhMCU0cx
EjAQBgNVBAgMCVNpbmdhcG9yZTESMBAGA1UEBwwJU2luZ2Fwb3JlMQswCQYDVQQK
DAJQUzELMAkGA1UECwwCUFMxEDAOBgNVBAMMB0FOU0lCTEUwHhcNMjUwMjE3MTAy
MjEwWhcNNDUwMjEyMTAyMjEwWjBkMQswCQYDVQQGEwJTRzESMBAGA1UECAwJU2lu
Z2Fwb3JlMRIwEAYDVQQHDAlTaW5nYXBvcmUxEjAQBgNVBAoMCUNvbmZsdWVudDEL
MAkGA1UECwwCUFMxDDAKBgNVBAMMA0FXUzCCAiIwDQYJKoZIhvcNAQEBBQADggIP
ADCCAgoCggIBANQd3l9jgClxn0U8pu3c3L9acHNrhmg1x5hNLTmRSCu2s/9/HA8N
yR08Rb4mZLkO/rr3UBNfgKLt1RUZLcEAvc9Hk8S+PBzCZntn2zUfsXUNPcLPoY8h
bAMMNzuubMlH3W4KLA7HDWp7HRgig2vwpOJ0/qjCr4F8ebj3Hw0jSfjKpJlhaW4b
p+AJ2e2/UypkjJg4/iqL1XpDn90+zal3zg4kctwi69sU/g/yjX/NSLL1oO86DlN1
Ii+750agA1pQ9zgO3wLuTfl5Mn4RjDgrjsKfDZ1d22h2GAKL1J98PbWsRMYSBx+Y
ndky9DcAo5UW11GtjUeM+h7InIxIc/x8DmS2z22uX+bu3Zvl+NQUNOH/ux33Lh9/
C2qYXPpHFxluGvTgEKjtWK5wFoBRS82GJ69w1F/VjJQgjyr/lTLA/xzFZ+eyn2ZO
Ul8huKFs6DSM9bi5QnFCG9ywcetUgs84dCiqJnoHw+dGdZnugNQAhX6qRz7WvMgo
+GOzTv4SetLGxio/9py7nQj8S0m0zWvjE7t2uRQeYAjd+nATnu2sR88GCtufNyfC
L5CCmhCfu65ftBU7Uf2jRN8yhAO1yWonO0FIMGBR84m2JNu8Dp2OyAyPYRISLvt8
bsz2noFlf7X9obbzhUnPredgDJzf6mouBrs0QXFIRfMJJ+NBnfE95qgtAgMBAAGj
ggEOMIIBCjAdBgNVHQ4EFgQUpcEbvFEY6px9mxCjxCInmu7P3vowHwYDVR0jBBgw
FoAUZ3jeqV6DAoBjeFhSrIM10zbhKq0wCQYDVR0TBAIwADALBgNVHQ8EBAMCBeAw
JwYDVR0lBCAwHgYIKwYBBQUHAwIGCCsGAQUFBwMEBggrBgEFBQcDATBZBgNVHREE
UjBQggNBV1OCISouYXAtc291dGhlYXN0LTEuY29tcHV0ZS5pbnRlcm5hbIImKi5h
cC1zb3V0aGVhc3QtMS5jb21wdXRlLmFtYXpvbmF3cy5jb20wLAYJYIZIAYb4QgEN
BB8WHU9wZW5TU0wgR2VuZXJhdGVkIENlcnRpZmljYXRlMA0GCSqGSIb3DQEBDQUA
A4ICAQCj6BD1n4Q44ZvySAAvW/yJsFjDpimzWv35SbHcfWw85rhxlMsZFP45Wxou
i07QGcsAsdjG0wbZxbDRdj4ol3rzEdJAQxN79b+lhaUi/ZIPzjZ6IWjw44IBRPLq
8VmUUR0U0BWCeHwXU3fdkdOwYU66e8vsCQI4ovQj8ndcGqUMAJBJZ8JWGTFP1Lhf
cd8VUfv6Ca0FnGKsHKwI/ytqrIDCxqqjEy7BBfnt/8YOMxab+N8nCJx4jAV4WLgY
Oit6wkEyGKK6mcqc3u3MvFVsQImUvPFtfP3BoFW/dEm7QSSQmLyRRcM/UdpwH/5P
Q3bwpDopWWTkGPwY5vds0GILe6vutWS4e03QHgbeUPTNiSWCk2hiWwY4EijCDjaw
R26lgygkIcut9tZOCDHl0PnJSvaFvl5OD2tzMFCFfEOOD5x+Yyu4+HAwZ2B4TrSZ
qUZuRz1JBFOLnLg/ymWxLPgkQvovG1ABEqJpTRAMyV6IKU6FIyOH2ABuYutbcewi
/WyOvk15InZ7pU+JLGALeRAv3SQXpxS2EHgiCoxL1otOlgd9kQnRpt3sniwtVA7O
i6kt9A+bQLVcfDGGiHkpMu4w88sBE7Xy6lcq9Y5wI9JpN2r7f5tf2LoYueqClT4i
8ljKDH+4m0AZ5yQ956LPBmtPwxNEc6PfPfOx42Z0s0bXRXMpNA==
-----END CERTIFICATE-----

